target datalayout = "e-m:e-p270:32:32-p271:32:32-p272:64:64-i64:64-i128:128-f80:128-n8:16:32:64-S128"
target triple = "x86_64-pc-linux-gnu"

%struct.extcap_dumper = type { i32, %union.anon }
%union.anon = type { ptr }
%union.data_aligned_t = type { ptr }
%struct.wtap_rec = type { i32, i32, i32, %struct.nstime_t, i32, %struct.nstime_t, i8, %union.anon.0, ptr, i8, %struct.Buffer, %struct.Buffer }
%struct.nstime_t = type { i64, i32 }
%union.anon.0 = type { %struct.wtap_packet_header }
%struct.wtap_packet_header = type { i32, i32, i32, i32, %union.wtap_pseudo_header }
%union.wtap_pseudo_header = type { %struct.erf_mc_phdr }
%struct.erf_mc_phdr = type { %struct.erf_phdr, [16 x %struct.erf_ehdr], %union.anon.2 }
%struct.erf_phdr = type { i64, i8, i8, i16, i16, i16 }
%struct.erf_ehdr = type { i64 }
%union.anon.2 = type { i32 }
%struct.Buffer = type { ptr, i64, i64, i64 }
%struct.bthci_phdr = type { i8, i32 }

; Function Attrs: null_pointer_is_valid sspstrong uwtable
define internal zeroext i1 @extcap_dumper_dump(i32 %0, ptr %1, ptr noundef %2, ptr noundef %3, i64 noundef %4, i64 noundef %5, i64 noundef %6, i32 noundef %7) #0 {
  %9 = alloca i1, align 1
  %10 = alloca %struct.extcap_dumper, align 8
  %11 = alloca ptr, align 8
  %12 = alloca ptr, align 8
  %13 = alloca i64, align 8
  %14 = alloca i64, align 8
  %15 = alloca i64, align 8
  %16 = alloca i32, align 4
  %17 = alloca i32, align 4
  %18 = alloca ptr, align 8
  %19 = alloca %struct.wtap_rec, align 8
  %20 = alloca ptr, align 8
  %21 = alloca %union.data_aligned_t, align 8
  %22 = alloca i32, align 4
  %23 = alloca i32, align 4
  %24 = alloca i32, align 4
  %25 = alloca i32, align 4
  %26 = getelementptr inbounds nuw { i32, ptr }, ptr %10, i32 0, i32 0
  store i32 %0, ptr %26, align 8
  %27 = getelementptr inbounds nuw { i32, ptr }, ptr %10, i32 0, i32 1
  store ptr %1, ptr %27, align 8
  store ptr %2, ptr %11, align 8
  store ptr %3, ptr %12, align 8
  store i64 %4, ptr %13, align 8
  store i64 %5, ptr %14, align 8
  store i64 %6, ptr %15, align 8
  store i32 %7, ptr %16, align 4
  call void @llvm.lifetime.start.p0(i64 4, ptr %17) #17
  store i32 0, ptr %17, align 4
  call void @llvm.lifetime.start.p0(i64 8, ptr %18) #17
  call void @llvm.lifetime.start.p0(i64 312, ptr %19) #17
  %28 = getelementptr inbounds nuw %struct.wtap_rec, ptr %19, i32 0, i32 0
  store i32 0, ptr %28, align 8
  %29 = getelementptr inbounds nuw %struct.wtap_rec, ptr %19, i32 0, i32 1
  store i32 1, ptr %29, align 4
  %30 = load i64, ptr %13, align 8
  %31 = trunc i64 %30 to i32
  %32 = getelementptr inbounds nuw %struct.wtap_rec, ptr %19, i32 0, i32 7
  %33 = getelementptr inbounds nuw %struct.wtap_packet_header, ptr %32, i32 0, i32 0
  store i32 %31, ptr %33, align 8
  %34 = load i64, ptr %14, align 8
  %35 = trunc i64 %34 to i32
  %36 = getelementptr inbounds nuw %struct.wtap_rec, ptr %19, i32 0, i32 7
  %37 = getelementptr inbounds nuw %struct.wtap_packet_header, ptr %36, i32 0, i32 1
  store i32 %35, ptr %37, align 4
  %38 = load i64, ptr %15, align 8
  %39 = getelementptr inbounds nuw %struct.wtap_rec, ptr %19, i32 0, i32 3
  %40 = getelementptr inbounds nuw %struct.nstime_t, ptr %39, i32 0, i32 0
  store i64 %38, ptr %40, align 8
  %41 = load i32, ptr %16, align 4
  %42 = getelementptr inbounds nuw %struct.wtap_rec, ptr %19, i32 0, i32 3
  %43 = getelementptr inbounds nuw %struct.nstime_t, ptr %42, i32 0, i32 1
  store i32 %41, ptr %43, align 8
  %44 = getelementptr inbounds nuw %struct.wtap_rec, ptr %19, i32 0, i32 8
  store ptr null, ptr %44, align 8
  %45 = getelementptr inbounds nuw %struct.extcap_dumper, ptr %10, i32 0, i32 0
  %46 = load i32, ptr %45, align 8
  %47 = icmp eq i32 %46, 99
  br i1 %47, label %48, label %94

48:                                               ; preds = %8
  call void @llvm.lifetime.start.p0(i64 8, ptr %20) #17
  call void @llvm.lifetime.start.p0(i64 8, ptr %21) #17
  %49 = load ptr, ptr %12, align 8
  store ptr %49, ptr %21, align 8
  %50 = load ptr, ptr %21, align 8
  store ptr %50, ptr %20, align 8
  call void @llvm.lifetime.end.p0(i64 8, ptr %21) #17
  call void @llvm.lifetime.start.p0(i64 4, ptr %22) #17
  call void @llvm.lifetime.start.p0(i64 4, ptr %23) #17
  %51 = load ptr, ptr %20, align 8
  %52 = load i32, ptr %51, align 4
  store i32 %52, ptr %23, align 4
  %53 = load i32, ptr %23, align 4
  %54 = call i1 @llvm.is.constant.i32(i32 %53)
  br i1 %54, label %55, label %71

55:                                               ; preds = %48
  %56 = load i32, ptr %23, align 4
  %57 = and i32 %56, 255
  %58 = shl i32 %57, 24
  %59 = load i32, ptr %23, align 4
  %60 = and i32 %59, 65280
  %61 = shl i32 %60, 8
  %62 = or i32 %58, %61
  %63 = load i32, ptr %23, align 4
  %64 = and i32 %63, 16711680
  %65 = lshr i32 %64, 8
  %66 = or i32 %62, %65
  %67 = load i32, ptr %23, align 4
  %68 = and i32 %67, -16777216
  %69 = lshr i32 %68, 24
  %70 = or i32 %66, %69
  store i32 %70, ptr %22, align 4
  br label %74

71:                                               ; preds = %48
  %72 = load i32, ptr %23, align 4
  %73 = call i32 asm "bswapl $0", "=r,0,~{dirflag},~{fpsr},~{flags}"(i32 %72) #23, !srcloc !61
  store i32 %73, ptr %22, align 4
  br label %74

74:                                               ; preds = %71, %55
  %75 = load i32, ptr %22, align 4
  store i32 %75, ptr %24, align 4
  call void @llvm.lifetime.end.p0(i64 4, ptr %23) #17
  call void @llvm.lifetime.end.p0(i64 4, ptr %22) #17
  %76 = load i32, ptr %24, align 4
  %77 = icmp ne i32 %76, 0
  %78 = select i1 %77, i32 0, i32 1
  %79 = icmp ne i32 %78, 0
  %80 = getelementptr inbounds nuw %struct.wtap_rec, ptr %19, i32 0, i32 7
  %81 = getelementptr inbounds nuw %struct.wtap_packet_header, ptr %80, i32 0, i32 4
  %82 = getelementptr inbounds nuw %struct.bthci_phdr, ptr %81, i32 0, i32 0
  %83 = zext i1 %79 to i8
  store i8 %83, ptr %82, align 8
  %84 = getelementptr inbounds nuw %struct.wtap_rec, ptr %19, i32 0, i32 7
  %85 = getelementptr inbounds nuw %struct.wtap_packet_header, ptr %84, i32 0, i32 1
  %86 = load i32, ptr %85, align 4
  %87 = sub i32 %86, 4
  store i32 %87, ptr %85, align 4
  %88 = getelementptr inbounds nuw %struct.wtap_rec, ptr %19, i32 0, i32 7
  %89 = getelementptr inbounds nuw %struct.wtap_packet_header, ptr %88, i32 0, i32 0
  %90 = load i32, ptr %89, align 8
  %91 = sub i32 %90, 4
  store i32 %91, ptr %89, align 8
  %92 = load ptr, ptr %12, align 8
  %93 = getelementptr i8, ptr %92, i64 4
  store ptr %93, ptr %12, align 8
  call void @llvm.lifetime.end.p0(i64 8, ptr %20) #17
  br label %94

94:                                               ; preds = %74, %8
  %95 = getelementptr inbounds nuw %struct.extcap_dumper, ptr %10, i32 0, i32 0
  %96 = load i32, ptr %95, align 8
  %97 = getelementptr inbounds nuw %struct.wtap_rec, ptr %19, i32 0, i32 7
  %98 = getelementptr inbounds nuw %struct.wtap_packet_header, ptr %97, i32 0, i32 2
  store i32 %96, ptr %98, align 8
  %99 = getelementptr inbounds nuw %struct.extcap_dumper, ptr %10, i32 0, i32 1
  %100 = load ptr, ptr %99, align 8
  %101 = load ptr, ptr %12, align 8
  %102 = call zeroext i1 @wtap_dump(ptr noundef %100, ptr noundef %19, ptr noundef %101, ptr noundef %17, ptr noundef %18)
  br i1 %102, label %110, label %103

103:                                              ; preds = %94
  %104 = load ptr, ptr %11, align 8
  %105 = load i32, ptr %17, align 4
  %106 = load ptr, ptr %18, align 8
  %107 = getelementptr inbounds nuw %struct.extcap_dumper, ptr %10, i32 0, i32 1
  %108 = load ptr, ptr %107, align 8
  %109 = call i32 @wtap_dump_file_type_subtype(ptr noundef %108)
  call void @cfile_write_failure_message(ptr noundef null, ptr noundef %104, i32 noundef %105, ptr noundef %106, i64 noundef 0, i32 noundef %109)
  store i1 false, ptr %9, align 1
  store i32 1, ptr %25, align 4
  br label %121

110:                                              ; preds = %94
  %111 = getelementptr inbounds nuw %struct.extcap_dumper, ptr %10, i32 0, i32 1
  %112 = load ptr, ptr %111, align 8
  %113 = call zeroext i1 @wtap_dump_flush(ptr noundef %112, ptr noundef %17)
  br i1 %113, label %120, label %114

114:                                              ; preds = %110
  %115 = load ptr, ptr %11, align 8
  %116 = load i32, ptr %17, align 4
  %117 = getelementptr inbounds nuw %struct.extcap_dumper, ptr %10, i32 0, i32 1
  %118 = load ptr, ptr %117, align 8
  %119 = call i32 @wtap_dump_file_type_subtype(ptr noundef %118)
  call void @cfile_write_failure_message(ptr noundef null, ptr noundef %115, i32 noundef %116, ptr noundef null, i64 noundef 0, i32 noundef %119)
  store i1 false, ptr %9, align 1
  store i32 1, ptr %25, align 4
  br label %121

120:                                              ; preds = %110
  store i1 true, ptr %9, align 1
  store i32 1, ptr %25, align 4
  br label %121

121:                                              ; preds = %120, %114, %103
  call void @llvm.lifetime.end.p0(i64 312, ptr %19) #17
  call void @llvm.lifetime.end.p0(i64 8, ptr %18) #17
  call void @llvm.lifetime.end.p0(i64 4, ptr %17) #17
  %122 = load i1, ptr %9, align 1
  ret i1 %122
}