; Function Attrs: null_pointer_is_valid sspstrong uwtable
define internal fastcc noundef zeroext i1 @extcap_dumper_dump(i32 %0, ptr nonnull %1, ptr noundef %2, ptr noundef %3, i64 noundef %4, i64 noundef %5, i64 noundef %6, i32 noundef %7) unnamed_addr #0 {
  %9 = alloca i32, align 4
  %10 = alloca ptr, align 8
  %11 = alloca %struct.wtap_rec, align 8
  call void @llvm.lifetime.start.p0(i64 4, ptr nonnull %9) #19
  store i32 0, ptr %9, align 4
  call void @llvm.lifetime.start.p0(i64 8, ptr nonnull %10) #19
  call void @llvm.lifetime.start.p0(i64 312, ptr nonnull %11) #19
  store i32 0, ptr %11, align 8
  %12 = getelementptr inbounds nuw i8, ptr %11, i64 4
  store i32 1, ptr %12, align 4
  %13 = trunc i64 %4 to i32
  %14 = getelementptr inbounds nuw i8, ptr %11, i64 64
  store i32 %13, ptr %14, align 8
  %15 = trunc i64 %5 to i32
  %16 = getelementptr inbounds nuw i8, ptr %11, i64 68
  store i32 %15, ptr %16, align 4
  %17 = getelementptr inbounds nuw i8, ptr %11, i64 16
  store i64 %6, ptr %17, align 8
  %18 = getelementptr inbounds nuw i8, ptr %11, i64 24
  store i32 %7, ptr %18, align 8
  %19 = getelementptr inbounds nuw i8, ptr %11, i64 232
  store ptr null, ptr %19, align 8
  %20 = icmp eq i32 %0, 99
  br i1 %20, label %21, label %29

21:                                               ; preds = %8
  %22 = load i32, ptr %3, align 4
  %23 = tail call i32 asm "bswapl $0", "=r,0,~{dirflag},~{fpsr},~{flags}"(i32 %22) #24, !srcloc !62
  %.not = icmp eq i32 %23, 0
  %24 = getelementptr inbounds nuw i8, ptr %11, i64 80
  %25 = zext i1 %.not to i8
  store i8 %25, ptr %24, align 8
  %26 = add i32 %15, -4
  store i32 %26, ptr %16, align 4
  %27 = add i32 %13, -4
  store i32 %27, ptr %14, align 8
  %28 = getelementptr i8, ptr %3, i64 4
  br label %29

29:                                               ; preds = %21, %8
  %.023 = phi ptr [ %28, %21 ], [ %3, %8 ]
  %30 = getelementptr inbounds nuw i8, ptr %11, i64 72
  store i32 %0, ptr %30, align 8
  %31 = call zeroext i1 @wtap_dump(ptr noundef nonnull %1, ptr noundef nonnull %11, ptr noundef %.023, ptr noundef nonnull %9, ptr noundef nonnull %10)
  br i1 %31, label %36, label %32

32:                                               ; preds = %29
  %33 = load i32, ptr %9, align 4
  %34 = load ptr, ptr %10, align 8
  %35 = call i32 @wtap_dump_file_type_subtype(ptr noundef nonnull %1)
  call void @cfile_write_failure_message(ptr noundef null, ptr noundef %2, i32 noundef %33, ptr noundef %34, i64 noundef 0, i32 noundef %35)
  br label %41

36:                                               ; preds = %29
  %37 = call zeroext i1 @wtap_dump_flush(ptr noundef nonnull %1, ptr noundef nonnull %9)
  br i1 %37, label %41, label %38

38:                                               ; preds = %36
  %39 = load i32, ptr %9, align 4
  %40 = call i32 @wtap_dump_file_type_subtype(ptr noundef nonnull %1)
  call void @cfile_write_failure_message(ptr noundef null, ptr noundef %2, i32 noundef %39, ptr noundef null, i64 noundef 0, i32 noundef %40)
  br label %41

41:                                               ; preds = %36, %38, %32
  %.0 = phi i1 [ false, %38 ], [ false, %32 ], [ true, %36 ]
  call void @llvm.lifetime.end.p0(i64 312, ptr nonnull %11) #19
  call void @llvm.lifetime.end.p0(i64 8, ptr nonnull %10) #19
  call void @llvm.lifetime.end.p0(i64 4, ptr nonnull %9) #19
  ret i1 %.0
}